(dp1
S'max_region_length'
p2
I30
sS'min_dynamic_prior'
p3
F0
sS'dynamic_priors'
p4
(lp5
(lp6
F0.99431993223792281
aF0.77751551495555427
aF0.85354053243728389
aF0.94319959372005224
aa(lp7
F0.0006662454292523653
aF0.0077527683359535395
aF0.023004351000926189
aF0.020254263298110635
aa(lp8
F0.0050138223328248079
aF0.21473171670849228
aF0.12345511656178991
aF0.036546142981837143
aasS'prev_total_likelihood'
p9
F-384076.69514842244
sS'n_threads'
p10
I4
sS'dynamics_params'
p11
(lp12
(lp13
(lp14
I0
aI0
aa(lp15
I0
aI0
aa(lp16
I0
aI0
aa(lp17
I0
aI0
aaa(lp18
(lp19
cnumpy.core.multiarray
scalar
p20
(cnumpy
dtype
p21
(S'f8'
I0
I1
tRp22
(I3
S'<'
NNNI-1
I-1
I0
tbS'2\xe5l\xfc\x1fd\x1e@'
tRp23
ag20
(g22
S'z\xc4\xceT\xb5^\x03@'
tRp24
aa(lp25
g20
(g22
S'\xbd\xd4\xca\x9b\xafL\xe3?'
tRp26
ag20
(g22
S'k\xf5\xe2\xeb\xb1\r\xf8?'
tRp27
aa(lp28
g20
(g22
S'\xecS\x9ft\xf0<\xe4?'
tRp29
ag20
(g22
S'\x8d\xc1N\x87";\xd9?'
tRp30
aa(lp31
g20
(g22
S'<\xed\xd7<:\x93\x0c@'
tRp32
ag20
(g22
S' K\xe8\x1a\x18\x8a\xf2?'
tRp33
aaa(lp34
(lp35
g20
(g22
S'@W\xe7\x06\xc6\x0e3@'
tRp36
ag20
(g22
S'8\x01\x80O{:\xfe?'
tRp37
aa(lp38
g20
(g22
S'(&\x8d\xb9\xd1\xea\xc4?'
tRp39
ag20
(g22
S'u\xdcb\x98S&\xc7\xbf'
tRp40
aa(lp41
g20
(g22
S'(\x9b\xe89Yp\xc3?'
tRp42
ag20
(g22
S'T\x83\xf0\x8d\xecw\xa5?'
tRp43
aa(lp44
g20
(g22
S'8\x00\x06\x08!]\xe8?'
tRp45
ag20
(g22
S'\xa1\x95e\x07q>\xe7?'
tRp46
aaasS'model_fname'
p47
S't_cell_development.H3K4ME2/t_cell_development.H3K4ME2.model.pickle'
p48
sS'foreground_betas'
p49
(lp50
cnumpy.core.multiarray
_reconstruct
p51
(cnumpy
ndarray
p52
(I0
tS'b'
tRp53
(I1
(I2
tg21
(S'f8'
I0
I1
tRp54
(I3
S'<'
NNNI-1
I-1
I0
tbI00
S'\xd9\xbc\xa1jB\xfa\xe7?p`G\xd0\xb3\xc8\x03@'
tbag51
(g52
(I0
tS'b'
tRp55
(I1
(I2
tg21
(S'f8'
I0
I1
tRp56
(I3
S'<'
NNNI-1
I-1
I0
tbI00
S'\x9b!g\x19\xec(\xea?.Z\xea\xf7\x83@\x01@'
tbag51
(g52
(I0
tS'b'
tRp57
(I1
(I2
tg21
(S'f8'
I0
I1
tRp58
(I3
S'<'
NNNI-1
I-1
I0
tbI00
S"'\xc6\x94=\xaeF\xee?\xe1\xc5\xa3\x08+\x12\xfa?"
tbag51
(g52
(I0
tS'b'
tRp59
(I1
(I2
tg21
(S'f8'
I0
I1
tRp60
(I3
S'<'
NNNI-1
I-1
I0
tbI00
S'#\x05D$v\xe2\xf1?\xcf\x0fO\x7f2Z\xf3?'
tbag51
(g52
(I0
tS'b'
tRp61
(I1
(I2
tg21
(S'f8'
I0
I1
tRp62
(I3
S'<'
NNNI-1
I-1
I0
tbI00
S'y\xd7\x06\x11\xf3\xaf\xf6?\x16\xf4Q\x92\xa8\x1d\xea?'
tbasS'dynamics_idx'
p63
(dp64
S'S'
I0
sS'E'
I1
sS'C'
I2
ssS'n_timepoints'
p65
I5
sS'background_betas'
p66
(lp67
g51
(g52
(I0
tS'b'
tRp68
(I1
(I2
tg54
I00
S'\xd9\xbc\xa1jB\xfa\xe7?\x80\xcc\xff][\xe6\xc2?'
tbag51
(g52
(I0
tS'b'
tRp69
(I1
(I2
tg56
I00
S'\x9b!g\x19\xec(\xea?\xae\x0bf\x18\x9bT\xd8\xbf'
tbag51
(g52
(I0
tS'b'
tRp70
(I1
(I2
tg58
I00
S"'\xc6\x94=\xaeF\xee?6\x85\x07\x18Z\x1e\xd3\xbf"
tbag51
(g52
(I0
tS'b'
tRp71
(I1
(I2
tg60
I00
S'#\x05D$v\xe2\xf1?\x9eP_\x9b\xa8\xad\xe9\xbf'
tbag51
(g52
(I0
tS'b'
tRp72
(I1
(I2
tg62
I00
S'y\xd7\x06\x11\xf3\xaf\xf6?f\xf0J\xc7\xe6\xdc\xfb\xbf'
tbasS'bin_size'
p73
I500
sS'out_prefix'
p74
S't_cell_development.H3K4ME2/t_cell_development.H3K4ME2'
p75
sS'n_dynamics_params'
p76
I2
sS'background_delta'
p77
(lp78
g20
(g22
S'%cc~\x87\xa0\xfc?'
tRp79
ag20
(g22
S'$\xc0q\xff\xf7\x8a\xf8?'
tRp80
ag20
(g22
S'\x14:\x00\x08PY\x06@'
tRp81
ag20
(g22
S'\x83\x1am\x00,\xcb\x04@'
tRp82
ag20
(g22
S'G\xd0\xd7P\x14\xda\xfc?'
tRp83
asS'foreground_delta'
p84
(lp85
g79
ag80
ag81
ag82
ag83
asS'dynamics'
p86
(lp87
S'S'
aS'E'
aS'C'
asS'n_covariates'
p88
I2
sS'n_dynamics'
p89
I3
sS'fdr_threshold_for_decoding'
p90
(lp91
F0.037836546568838829
aF0.037917698190217966
aF0.034413437068449446
aF0.029064493547956469
aF0.029847591287453748
as.