(dp1
S'max_region_length'
p2
I30
sS'dynamics_idx'
p3
(dp4
S'S'
I0
sS'E'
I1
sS'C'
I2
ssS'dynamic_priors'
p5
(lp6
(lp7
F0.98620796481603268
aF0.7475807156087364
aF0.82733772533656669
aF0.90375583706027296
aa(lp8
F0.0057547577247660398
aF0.02152804882190101
aF0.037187670046803969
aF0.031046307985499691
aa(lp9
F0.0080372774592014345
aF0.23089123556936259
aF0.13547460461662927
aF0.065197854954227349
aasS'prev_total_likelihood'
p10
F-443894.03085586237
sS'n_threads'
p11
I4
sS'dynamics_params'
p12
(lp13
(lp14
(lp15
I0
aI0
aa(lp16
I0
aI0
aa(lp17
I0
aI0
aa(lp18
I0
aI0
aaa(lp19
(lp20
cnumpy.core.multiarray
scalar
p21
(cnumpy
dtype
p22
(S'f8'
I0
I1
tRp23
(I3
S'<'
NNNI-1
I-1
I0
tbS'\x07\x8c@*\xa7m\xf3@'
tRp24
ag21
(g23
S'\xf7\xa8Ad\x13\xcc\xf7?'
tRp25
aa(lp26
g21
(g23
S'\xc6\x87\xe3\x06\x8d\xd3\x05@'
tRp27
ag21
(g23
S'\xf7~$\x99\xa4\x06\xf1?'
tRp28
aa(lp29
g21
(g23
S'\xdd\xe0\x9cl\x9b\xdd\xfd?'
tRp30
ag21
(g23
S'\x9a\x07\xe4\x8cS9\xe7?'
tRp31
aa(lp32
g21
(g23
S'\xef\xdf\x0c\x99\xac\xfe\x02@'
tRp33
ag21
(g23
S'\x96\xd2\xe9\xfa\x8db\xf5?'
tRp34
aaa(lp35
(lp36
g21
(g23
S'#Le\xde[\xd3\x11@'
tRp37
ag21
(g23
S'7\xe99sn,\xf9?'
tRp38
aa(lp39
g21
(g23
S'\xab\x0c3\xee9\xdf\xe7?'
tRp40
ag21
(g23
S'\xc5\xe0\r\x8ak$\x87?'
tRp41
aa(lp42
g21
(g23
S"\xe1r\xc1\x87'\xa4\xea?"
tRp43
ag21
(g23
S'\xa0\x07M;\x866\xdc?'
tRp44
aa(lp45
g21
(g23
S'=q\xdbf\x13\n\xf6?'
tRp46
ag21
(g23
S'\xa1\x81\xa3s\xc5\x19\xeb?'
tRp47
aaasS'model_fname'
p48
S't_cell_development.H3K4ME2/t_cell_development.H3K4ME2.model.pickle'
p49
sS'foreground_betas'
p50
(lp51
cnumpy.core.multiarray
_reconstruct
p52
(cnumpy
ndarray
p53
(I0
tS'b'
tRp54
(I1
(I2
tg22
(S'f8'
I0
I1
tRp55
(I3
S'<'
NNNI-1
I-1
I0
tbI00
S'a\x90\x88\xf1\xc4\xb7\xe2?\xa6\xdd8\xd9\x1e\x02\x06@'
tbag52
(g53
(I0
tS'b'
tRp56
(I1
(I2
tg22
(S'f8'
I0
I1
tRp57
(I3
S'<'
NNNI-1
I-1
I0
tbI00
S'H\xef~\x07\x99\xbe\xe5?\xe0`\xdd62\xd3\x02@'
tbag52
(g53
(I0
tS'b'
tRp58
(I1
(I2
tg22
(S'f8'
I0
I1
tRp59
(I3
S'<'
NNNI-1
I-1
I0
tbI00
S':\x9c"A8W\xed?\x02^\xf5"\xfa\xce\xfc?'
tbag52
(g53
(I0
tS'b'
tRp60
(I1
(I2
tg22
(S'f8'
I0
I1
tRp61
(I3
S'<'
NNNI-1
I-1
I0
tbI00
S'\x0baja\xaf%\xf1?\xfc\xe72)\x86\xfe\xf8?'
tbag52
(g53
(I0
tS'b'
tRp62
(I1
(I2
tg22
(S'f8'
I0
I1
tRp63
(I3
S'<'
NNNI-1
I-1
I0
tbI00
S's\xde\xb4\x17\xa2\xb7\xf5?T=\xde\xbf\xfd\x9a\xf7?'
tbasS'fdr_threshold_for_decoding'
p64
(lp65
F0.037815869423870205
aF0.037646644934785332
aF0.033381344346752488
aF0.030931590668414739
aF0.028334500861557383
asS'n_timepoints'
p66
I5
sS'background_betas'
p67
(lp68
g52
(g53
(I0
tS'b'
tRp69
(I1
(I2
tg55
I00
S'a\x90\x88\xf1\xc4\xb7\xe2?L\xaa\x83l\xb5\x01\xe2?'
tbag52
(g53
(I0
tS'b'
tRp70
(I1
(I2
tg57
I00
S'H\xef~\x07\x99\xbe\xe5?\x17\xa7\x17\x80L\x92\xa9\xbf'
tbag52
(g53
(I0
tS'b'
tRp71
(I1
(I2
tg59
I00
S':\x9c"A8W\xed?\xe2\x917\xdeN|\xc1\xbf'
tbag52
(g53
(I0
tS'b'
tRp72
(I1
(I2
tg61
I00
S'\x0baja\xaf%\xf1?$P\xd8\xfc\xa6c\xe0\xbf'
tbag52
(g53
(I0
tS'b'
tRp73
(I1
(I2
tg63
I00
S's\xde\xb4\x17\xa2\xb7\xf5?Y\x87D\xf6\xeb\xb4\xf1\xbf'
tbasS'bin_size'
p74
I200
sS'n_dynamics_params'
p75
I2
sS'background_delta'
p76
(lp77
g21
(g23
S'S\xc7lN\x08I\xfe?'
tRp78
ag21
(g23
S'#\xe6\xb3\xba?.\xfd?'
tRp79
ag21
(g23
S'\xc0\xdf\xdb\x95%4\x05@'
tRp80
ag21
(g23
S'?!\x97\xe0:\x06\x03@'
tRp81
ag21
(g23
S'\xbdV\xff\xb4\xbeC\xfa?'
tRp82
asS'foreground_delta'
p83
(lp84
g78
ag79
ag80
ag81
ag82
asS'dynamics'
p85
(lp86
S'S'
aS'E'
aS'C'
asS'n_covariates'
p87
I2
sS'n_dynamics'
p88
I3
s.